; Function Attrs: mustprogress uwtable
define void @_ZN8proxygen15HTTPTransaction18setEgressRateLimitEm(ptr nocapture noundef nonnull writeonly align 8 dereferenceable(912) %this, i64 noundef %bitsPerSecond) local_unnamed_addr #3 align 2 personality ptr @__gxx_personality_v0 {
entry:
  %ref.tmp8 = alloca %"class.google::LogMessage", align 8
  %div = udiv i64 %bitsPerSecond, 8000
  %egressLimitBytesPerMs_ = getelementptr inbounds i8, ptr %this, i64 736
  store i64 %div, ptr %egressLimitBytesPerMs_, align 8
  %0 = add i64 %bitsPerSecond, -1
  %or.cond = icmp ult i64 %0, 7999
  br i1 %or.cond, label %if.then, label %if.end

if.then:                                          ; preds = %entry
  %1 = load ptr, ptr @_ZZN8proxygen15HTTPTransaction18setEgressRateLimitEmE8vlocal__, align 8
  %cmp4 = icmp eq ptr %1, null
  br i1 %cmp4, label %cond.true, label %cond.end

cond.true:                                        ; preds = %if.then
  %call = tail call noundef zeroext i1 @_ZN6google11InitVLOG3__EPNS_8SiteFlagEPiPKci(ptr noundef nonnull @_ZZN8proxygen15HTTPTransaction18setEgressRateLimitEmE8vlocal__, ptr noundef nonnull @_ZN3fLI7FLAGS_vE, ptr noundef nonnull @.str, i32 noundef 4)
  br i1 %call, label %cond.false7, label %if.end

cond.end:                                         ; preds = %if.then
  %2 = load i32, ptr %1, align 4
  %cmp5 = icmp sgt i32 %2, 3
  br i1 %cmp5, label %cond.false7, label %if.end

cond.false7:                                      ; preds = %cond.true, %cond.end
  call void @_ZN6google10LogMessageC1EPKci(ptr noundef nonnull align 8 dereferenceable(96) %ref.tmp8, ptr noundef nonnull @.str, i32 noundef 1640)
  %call9 = invoke noundef nonnull align 8 dereferenceable(8) ptr @_ZN6google10LogMessage6streamEv(ptr noundef nonnull align 8 dereferenceable(96) %ref.tmp8)
          to label %invoke.cont unwind label %lpad

invoke.cont:                                      ; preds = %cond.false7
  %call11 = invoke noundef nonnull align 8 dereferenceable(8) ptr @_ZStlsISt11char_traitsIcEERSt13basic_ostreamIcT_ES5_PKc(ptr noundef nonnull align 8 dereferenceable(8) %call9, ptr noundef nonnull @.str.113)
          to label %invoke.cont10 unwind label %lpad

invoke.cont10:                                    ; preds = %invoke.cont
  %call13 = invoke noundef nonnull align 8 dereferenceable(8) ptr @_ZNSolsEm(ptr noundef nonnull align 8 dereferenceable(8) %call11, i64 noundef %bitsPerSecond)
          to label %invoke.cont12 unwind label %lpad

invoke.cont12:                                    ; preds = %invoke.cont10
  %call15 = invoke noundef nonnull align 8 dereferenceable(8) ptr @_ZStlsISt11char_traitsIcEERSt13basic_ostreamIcT_ES5_PKc(ptr noundef nonnull align 8 dereferenceable(8) %call13, ptr noundef nonnull @.str.114)
          to label %cleanup.action unwind label %lpad

cleanup.action:                                   ; preds = %invoke.cont12
  call void @_ZN6google10LogMessageD1Ev(ptr noundef nonnull align 8 dereferenceable(96) %ref.tmp8) #27
  br label %if.end

lpad:                                             ; preds = %invoke.cont12, %invoke.cont10, %invoke.cont, %cond.false7
  %3 = landingpad { ptr, i32 }
          cleanup
  call void @_ZN6google10LogMessageD1Ev(ptr noundef nonnull align 8 dereferenceable(96) %ref.tmp8) #27
  resume { ptr, i32 } %3

if.end:                                           ; preds = %cond.true, %cond.end, %cleanup.action, %entry
  %call.i = call i64 @_ZNSt6chrono3_V212steady_clock3nowEv() #27
  %startRateLimit_ = getelementptr inbounds i8, ptr %this, i64 744
  store i64 %call.i, ptr %startRateLimit_, align 8
  %numLimitedBytesEgressed_ = getelementptr inbounds i8, ptr %this, i64 752
  store i64 0, ptr %numLimitedBytesEgressed_, align 8
  ret void
}